target datalayout = "e-m:e-p270:32:32-p271:32:32-p272:64:64-i64:64-i128:128-f80:128-n8:16:32:64-S128"
target triple = "x86_64-pc-linux-gnu"

%"struct.OpenSubdiv::v3_6_0::Far::PatchTableFactory::Options" = type { i32, i32, ptr }
%"class.OpenSubdiv::v3_6_0::Vtr::ConstArray" = type <{ ptr, i32, [4 x i8] }>
%"class.OpenSubdiv::v3_6_0::Far::PatchTableBuilder" = type { ptr, %"struct.OpenSubdiv::v3_6_0::Far::PatchTableFactory::Options", %"class.OpenSubdiv::v3_6_0::Vtr::ConstArray", i8, ptr, ptr, %"class.OpenSubdiv::v3_6_0::Far::PtexIndices", %"class.std::vector.0", i32, i32, %"class.std::vector", %"class.std::vector.5", %"class.std::vector", i8, ptr }
%"class.OpenSubdiv::v3_6_0::Far::PtexIndices" = type { %"class.std::vector" }
%"class.std::vector.0" = type { %"struct.std::_Vector_base.1" }
%"struct.std::_Vector_base.1" = type { %"struct.std::_Vector_base<OpenSubdiv::v3_6_0::Far::PatchTableBuilder::PatchTuple, std::allocator<OpenSubdiv::v3_6_0::Far::PatchTableBuilder::PatchTuple>>::_Vector_impl" }
%"struct.std::_Vector_base<OpenSubdiv::v3_6_0::Far::PatchTableBuilder::PatchTuple, std::allocator<OpenSubdiv::v3_6_0::Far::PatchTableBuilder::PatchTuple>>::_Vector_impl" = type { %"struct.std::_Vector_base<OpenSubdiv::v3_6_0::Far::PatchTableBuilder::PatchTuple, std::allocator<OpenSubdiv::v3_6_0::Far::PatchTableBuilder::PatchTuple>>::_Vector_impl_data" }
%"struct.std::_Vector_base<OpenSubdiv::v3_6_0::Far::PatchTableBuilder::PatchTuple, std::allocator<OpenSubdiv::v3_6_0::Far::PatchTableBuilder::PatchTuple>>::_Vector_impl_data" = type { ptr, ptr, ptr }
%"class.std::vector.5" = type { %"struct.std::_Vector_base.6" }
%"struct.std::_Vector_base.6" = type { %"struct.std::_Vector_base<std::vector<int>, std::allocator<std::vector<int>>>::_Vector_impl" }
%"struct.std::_Vector_base<std::vector<int>, std::allocator<std::vector<int>>>::_Vector_impl" = type { %"struct.std::_Vector_base<std::vector<int>, std::allocator<std::vector<int>>>::_Vector_impl_data" }
%"struct.std::_Vector_base<std::vector<int>, std::allocator<std::vector<int>>>::_Vector_impl_data" = type { ptr, ptr, ptr }
%"class.std::vector" = type { %"struct.std::_Vector_base" }
%"struct.std::_Vector_base" = type { %"struct.std::_Vector_base<int, std::allocator<int>>::_Vector_impl" }
%"struct.std::_Vector_base<int, std::allocator<int>>::_Vector_impl" = type { %"struct.std::_Vector_base<int, std::allocator<int>>::_Vector_impl_data" }
%"struct.std::_Vector_base<int, std::allocator<int>>::_Vector_impl_data" = type { ptr, ptr, ptr }
%"class.std::vector.50" = type { %"struct.std::_Vector_base.51" }
%"struct.std::_Vector_base.51" = type { %"struct.std::_Vector_base<float, std::allocator<float>>::_Vector_impl" }
%"struct.std::_Vector_base<float, std::allocator<float>>::_Vector_impl" = type { %"struct.std::_Vector_base<float, std::allocator<float>>::_Vector_impl_data" }
%"struct.std::_Vector_base<float, std::allocator<float>>::_Vector_impl_data" = type { ptr, ptr, ptr }
%"struct.OpenSubdiv::v3_6_0::Far::PatchBuilder::SingleCreaseInfo" = type { i32, float }
%"struct.OpenSubdiv::v3_6_0::Far::PatchTableBuilder::PatchTuple" = type { i32, i32 }
%"struct.OpenSubdiv::v3_6_0::Far::PatchTableBuilder::PatchInfo" = type { i8, i8, i32, float, [4 x %"struct.OpenSubdiv::v3_6_0::Vtr::internal::Level::VSpan"], i32, %"class.OpenSubdiv::v3_6_0::Far::SparseMatrix", %"class.OpenSubdiv::v3_6_0::Far::SparseMatrix.80" }
%"struct.OpenSubdiv::v3_6_0::Vtr::internal::Level::VSpan" = type <{ i16, i16, i16, i8, i8 }>
%"class.OpenSubdiv::v3_6_0::Far::SparseMatrix" = type { i32, i32, i32, %"class.std::vector", %"class.std::vector", %"class.std::vector.50" }
%"class.OpenSubdiv::v3_6_0::Far::SparseMatrix.80" = type { i32, i32, i32, %"class.std::vector", %"class.std::vector", %"class.std::vector.81" }
%"class.std::vector.81" = type { %"struct.std::_Vector_base.82" }
%"struct.std::_Vector_base.82" = type { %"struct.std::_Vector_base<double, std::allocator<double>>::_Vector_impl" }
%"struct.std::_Vector_base<double, std::allocator<double>>::_Vector_impl" = type { %"struct.std::_Vector_base<double, std::allocator<double>>::_Vector_impl_data" }
%"struct.std::_Vector_base<double, std::allocator<double>>::_Vector_impl_data" = type { ptr, ptr, ptr }

; Function Attrs: mustprogress nounwind uwtable
define linkonce_odr noundef nonnull align 4 dereferenceable(4) ptr @_ZNKSt6vectorIiSaIiEEixEm(ptr noundef nonnull align 8 dereferenceable(24) %0, i64 noundef %1) #6 comdat align 2 {
  %3 = alloca ptr, align 8
  %4 = alloca i64, align 8
  store ptr %0, ptr %3, align 8
  store i64 %1, ptr %4, align 8
  %5 = load ptr, ptr %3, align 8
  %6 = getelementptr inbounds nuw %"struct.std::_Vector_base", ptr %5, i32 0, i32 0
  %7 = getelementptr inbounds nuw %"struct.std::_Vector_base<int, std::allocator<int>>::_Vector_impl_data", ptr %6, i32 0, i32 0
  %8 = load ptr, ptr %7, align 8
  %9 = load i64, ptr %4, align 8
  %10 = getelementptr inbounds i32, ptr %8, i64 %9
  ret ptr %10
}

; Function Attrs: mustprogress nounwind uwtable
define linkonce_odr noundef nonnull align 4 dereferenceable(4) ptr @_ZSt3minIfERKT_S2_S2_(ptr noundef nonnull align 4 dereferenceable(4) %0, ptr noundef nonnull align 4 dereferenceable(4) %1) #6 comdat {
  %3 = alloca ptr, align 8
  %4 = alloca ptr, align 8
  %5 = alloca ptr, align 8
  store ptr %0, ptr %4, align 8
  store ptr %1, ptr %5, align 8
  %6 = load ptr, ptr %5, align 8
  %7 = load float, ptr %6, align 4
  %8 = load ptr, ptr %4, align 8
  %9 = load float, ptr %8, align 4
  %10 = fcmp olt float %7, %9
  br i1 %10, label %11, label %13

11:                                               ; preds = %2
  %12 = load ptr, ptr %5, align 8
  store ptr %12, ptr %3, align 8
  br label %15

13:                                               ; preds = %2
  %14 = load ptr, ptr %4, align 8
  store ptr %14, ptr %3, align 8
  br label %15

15:                                               ; preds = %13, %11
  %16 = load ptr, ptr %3, align 8
  ret ptr %16
}

; Function Attrs: mustprogress nounwind uwtable
define linkonce_odr noundef i32 @_ZNK10OpenSubdiv6v3_6_03Far17PatchTableBuilder21getRefinerFVarChannelEi(ptr noundef nonnull align 8 dereferenceable(208) %0, i32 noundef %1) #6 comdat align 2 {
  %3 = alloca ptr, align 8
  %4 = alloca i32, align 4
  store ptr %0, ptr %3, align 8
  store i32 %1, ptr %4, align 4
  %5 = load ptr, ptr %3, align 8
  %6 = load i32, ptr %4, align 4
  %7 = icmp sge i32 %6, 0
  br i1 %7, label %8, label %14

8:                                                ; preds = %2
  %9 = getelementptr inbounds nuw %"class.OpenSubdiv::v3_6_0::Far::PatchTableBuilder", ptr %5, i32 0, i32 12
  %10 = load i32, ptr %4, align 4
  %11 = sext i32 %10 to i64
  %12 = call noundef nonnull align 4 dereferenceable(4) ptr @_ZNKSt6vectorIiSaIiEEixEm(ptr noundef nonnull align 8 dereferenceable(24) %9, i64 noundef %11) #3
  %13 = load i32, ptr %12, align 4
  br label %15

14:                                               ; preds = %2
  br label %15

15:                                               ; preds = %14, %8
  %16 = phi i32 [ %13, %8 ], [ -1, %14 ]
  ret i32 %16
}

; Function Attrs: mustprogress uwtable
define void @_ZN10OpenSubdiv6v3_6_03Far17PatchTableBuilder21identifyPatchTopologyERKNS2_10PatchTupleERNS2_9PatchInfoEi(ptr noundef nonnull align 8 dereferenceable(208) %0, ptr noundef nonnull align 4 dereferenceable(8) %1, ptr noundef nonnull align 8 dereferenceable(224) %2, i32 noundef %3) #4 align 2 {
  %5 = alloca ptr, align 8
  %6 = alloca ptr, align 8
  %7 = alloca ptr, align 8
  %8 = alloca i32, align 4
  %9 = alloca i32, align 4
  %10 = alloca i32, align 4
  %11 = alloca i32, align 4
  %12 = alloca i8, align 1
  %13 = alloca %"struct.OpenSubdiv::v3_6_0::Far::PatchBuilder::SingleCreaseInfo", align 4
  %14 = alloca float, align 4
  store ptr %0, ptr %5, align 8
  store ptr %1, ptr %6, align 8
  store ptr %2, ptr %7, align 8
  store i32 %3, ptr %8, align 4
  %15 = load ptr, ptr %5, align 8
  %16 = load ptr, ptr %6, align 8
  %17 = getelementptr inbounds nuw %"struct.OpenSubdiv::v3_6_0::Far::PatchTableBuilder::PatchTuple", ptr %16, i32 0, i32 1
  %18 = load i32, ptr %17, align 4
  store i32 %18, ptr %9, align 4
  %19 = load ptr, ptr %6, align 8
  %20 = getelementptr inbounds nuw %"struct.OpenSubdiv::v3_6_0::Far::PatchTableBuilder::PatchTuple", ptr %19, i32 0, i32 0
  %21 = load i32, ptr %20, align 4
  store i32 %21, ptr %10, align 4
  %22 = load i32, ptr %8, align 4
  %23 = call noundef i32 @_ZNK10OpenSubdiv6v3_6_03Far17PatchTableBuilder21getRefinerFVarChannelEi(ptr noundef nonnull align 8 dereferenceable(208) %15, i32 noundef %22)
  store i32 %23, ptr %11, align 4
  %24 = getelementptr inbounds nuw %"class.OpenSubdiv::v3_6_0::Far::PatchTableBuilder", ptr %15, i32 0, i32 5
  %25 = load ptr, ptr %24, align 8
  %26 = load i32, ptr %9, align 4
  %27 = load i32, ptr %10, align 4
  %28 = load i32, ptr %8, align 4
  %29 = call noundef zeroext i1 @_ZNK10OpenSubdiv6v3_6_03Far12PatchBuilder14IsPatchRegularEiii(ptr noundef nonnull align 8 dereferenceable(56) %25, i32 noundef %26, i32 noundef %27, i32 noundef %28)
  %30 = load ptr, ptr %7, align 8
  %31 = getelementptr inbounds nuw %"struct.OpenSubdiv::v3_6_0::Far::PatchTableBuilder::PatchInfo", ptr %30, i32 0, i32 0
  %32 = zext i1 %29 to i8
  store i8 %32, ptr %31, align 8
  %33 = load i32, ptr %11, align 4
  %34 = icmp slt i32 %33, 0
  br i1 %34, label %35, label %40

35:                                               ; preds = %4
  %36 = getelementptr inbounds nuw %"class.OpenSubdiv::v3_6_0::Far::PatchTableBuilder", ptr %15, i32 0, i32 1
  %37 = load i32, ptr %36, align 8
  %38 = lshr i32 %37, 17
  %39 = and i32 %38, 1
  br label %45

40:                                               ; preds = %4
  %41 = getelementptr inbounds nuw %"class.OpenSubdiv::v3_6_0::Far::PatchTableBuilder", ptr %15, i32 0, i32 1
  %42 = load i32, ptr %41, align 8
  %43 = lshr i32 %42, 18
  %44 = and i32 %43, 1
  br label %45

45:                                               ; preds = %40, %35
  %46 = phi i32 [ %39, %35 ], [ %44, %40 ]
  %47 = icmp ne i32 %46, 0
  %48 = zext i1 %47 to i8
  store i8 %48, ptr %12, align 1
  %49 = load ptr, ptr %7, align 8
  %50 = getelementptr inbounds nuw %"struct.OpenSubdiv::v3_6_0::Far::PatchTableBuilder::PatchInfo", ptr %49, i32 0, i32 0
  %51 = load i8, ptr %50, align 8
  %52 = trunc i8 %51 to i1
  br i1 %52, label %53, label %132

53:                                               ; preds = %45
  %54 = getelementptr inbounds nuw %"class.OpenSubdiv::v3_6_0::Far::PatchTableBuilder", ptr %15, i32 0, i32 5
  %55 = load ptr, ptr %54, align 8
  %56 = load i32, ptr %9, align 4
  %57 = load i32, ptr %10, align 4
  %58 = load i32, ptr %11, align 4
  %59 = call noundef i32 @_ZNK10OpenSubdiv6v3_6_03Far12PatchBuilder27GetRegularPatchBoundaryMaskEiii(ptr noundef nonnull align 8 dereferenceable(56) %55, i32 noundef %56, i32 noundef %57, i32 noundef %58)
  %60 = load ptr, ptr %7, align 8
  %61 = getelementptr inbounds nuw %"struct.OpenSubdiv::v3_6_0::Far::PatchTableBuilder::PatchInfo", ptr %60, i32 0, i32 2
  store i32 %59, ptr %61, align 4
  %62 = load ptr, ptr %7, align 8
  %63 = getelementptr inbounds nuw %"struct.OpenSubdiv::v3_6_0::Far::PatchTableBuilder::PatchInfo", ptr %62, i32 0, i32 1
  store i8 0, ptr %63, align 1
  %64 = load ptr, ptr %7, align 8
  %65 = getelementptr inbounds nuw %"struct.OpenSubdiv::v3_6_0::Far::PatchTableBuilder::PatchInfo", ptr %64, i32 0, i32 3
  store float 0.000000e+00, ptr %65, align 8
  %66 = load ptr, ptr %7, align 8
  %67 = getelementptr inbounds nuw %"struct.OpenSubdiv::v3_6_0::Far::PatchTableBuilder::PatchInfo", ptr %66, i32 0, i32 2
  %68 = load i32, ptr %67, align 4
  %69 = load ptr, ptr %7, align 8
  %70 = getelementptr inbounds nuw %"struct.OpenSubdiv::v3_6_0::Far::PatchTableBuilder::PatchInfo", ptr %69, i32 0, i32 5
  store i32 %68, ptr %70, align 4
  %71 = getelementptr inbounds nuw %"class.OpenSubdiv::v3_6_0::Far::PatchTableBuilder", ptr %15, i32 0, i32 3
  %72 = load i8, ptr %71, align 8
  %73 = lshr i8 %72, 1
  %74 = and i8 %73, 1
  %75 = zext i8 %74 to i32
  %76 = icmp ne i32 %75, 0
  br i1 %76, label %77, label %78

77:                                               ; preds = %53
  br label %78

78:                                               ; preds = %77, %53
  %79 = getelementptr inbounds nuw %"class.OpenSubdiv::v3_6_0::Far::PatchTableBuilder", ptr %15, i32 0, i32 3
  %80 = load i8, ptr %79, align 8
  %81 = lshr i8 %80, 3
  %82 = and i8 %81, 1
  %83 = zext i8 %82 to i32
  %84 = icmp ne i32 %83, 0
  br i1 %84, label %85, label %131

85:                                               ; preds = %78
  %86 = load ptr, ptr %7, align 8
  %87 = getelementptr inbounds nuw %"struct.OpenSubdiv::v3_6_0::Far::PatchTableBuilder::PatchInfo", ptr %86, i32 0, i32 2
  %88 = load i32, ptr %87, align 4
  %89 = icmp eq i32 %88, 0
  br i1 %89, label %90, label %131

90:                                               ; preds = %85
  %91 = load i32, ptr %11, align 4
  %92 = icmp slt i32 %91, 0
  br i1 %92, label %93, label %131

93:                                               ; preds = %90
  %94 = load i32, ptr %9, align 4
  %95 = getelementptr inbounds nuw %"class.OpenSubdiv::v3_6_0::Far::PatchTableBuilder", ptr %15, i32 0, i32 1
  %96 = load i32, ptr %95, align 8
  %97 = lshr i32 %96, 6
  %98 = and i32 %97, 15
  %99 = icmp slt i32 %94, %98
  br i1 %99, label %100, label %130

100:                                              ; preds = %93
  %101 = getelementptr inbounds nuw %"class.OpenSubdiv::v3_6_0::Far::PatchTableBuilder", ptr %15, i32 0, i32 5
  %102 = load ptr, ptr %101, align 8
  %103 = load i32, ptr %9, align 4
  %104 = load i32, ptr %10, align 4
  %105 = call noundef zeroext i1 @_ZNK10OpenSubdiv6v3_6_03Far12PatchBuilder26IsRegularSingleCreasePatchEiiRNS2_16SingleCreaseInfoE(ptr noundef nonnull align 8 dereferenceable(56) %102, i32 noundef %103, i32 noundef %104, ptr noundef nonnull align 4 dereferenceable(8) %13)
  br i1 %105, label %106, label %129

106:                                              ; preds = %100
  %107 = getelementptr inbounds nuw %"struct.OpenSubdiv::v3_6_0::Far::PatchBuilder::SingleCreaseInfo", ptr %13, i32 0, i32 1
  %108 = getelementptr inbounds nuw %"class.OpenSubdiv::v3_6_0::Far::PatchTableBuilder", ptr %15, i32 0, i32 1
  %109 = load i32, ptr %108, align 8
  %110 = lshr i32 %109, 6
  %111 = and i32 %110, 15
  %112 = load i32, ptr %9, align 4
  %113 = sub nsw i32 %111, %112
  %114 = sitofp i32 %113 to float
  store float %114, ptr %14, align 4
  %115 = call noundef nonnull align 4 dereferenceable(4) ptr @_ZSt3minIfERKT_S2_S2_(ptr noundef nonnull align 4 dereferenceable(4) %107, ptr noundef nonnull align 4 dereferenceable(4) %14)
  %116 = load float, ptr %115, align 4
  %117 = getelementptr inbounds nuw %"struct.OpenSubdiv::v3_6_0::Far::PatchBuilder::SingleCreaseInfo", ptr %13, i32 0, i32 1
  store float %116, ptr %117, align 4
  %118 = load ptr, ptr %7, align 8
  %119 = getelementptr inbounds nuw %"struct.OpenSubdiv::v3_6_0::Far::PatchTableBuilder::PatchInfo", ptr %118, i32 0, i32 1
  store i8 1, ptr %119, align 1
  %120 = getelementptr inbounds nuw %"struct.OpenSubdiv::v3_6_0::Far::PatchBuilder::SingleCreaseInfo", ptr %13, i32 0, i32 1
  %121 = load float, ptr %120, align 4
  %122 = load ptr, ptr %7, align 8
  %123 = getelementptr inbounds nuw %"struct.OpenSubdiv::v3_6_0::Far::PatchTableBuilder::PatchInfo", ptr %122, i32 0, i32 3
  store float %121, ptr %123, align 8
  %124 = getelementptr inbounds nuw %"struct.OpenSubdiv::v3_6_0::Far::PatchBuilder::SingleCreaseInfo", ptr %13, i32 0, i32 0
  %125 = load i32, ptr %124, align 4
  %126 = shl i32 1, %125
  %127 = load ptr, ptr %7, align 8
  %128 = getelementptr inbounds nuw %"struct.OpenSubdiv::v3_6_0::Far::PatchTableBuilder::PatchInfo", ptr %127, i32 0, i32 5
  store i32 %126, ptr %128, align 4
  br label %129

129:                                              ; preds = %106, %100
  br label %130

130:                                              ; preds = %129, %93
  br label %131

131:                                              ; preds = %130, %90, %85, %78
  br label %176

132:                                              ; preds = %45
  %133 = getelementptr inbounds nuw %"class.OpenSubdiv::v3_6_0::Far::PatchTableBuilder", ptr %15, i32 0, i32 3
  %134 = load i8, ptr %133, align 8
  %135 = lshr i8 %134, 2
  %136 = and i8 %135, 1
  %137 = zext i8 %136 to i32
  %138 = icmp ne i32 %137, 0
  br i1 %138, label %139, label %175

139:                                              ; preds = %132
  %140 = getelementptr inbounds nuw %"class.OpenSubdiv::v3_6_0::Far::PatchTableBuilder", ptr %15, i32 0, i32 5
  %141 = load ptr, ptr %140, align 8
  %142 = load i32, ptr %9, align 4
  %143 = load i32, ptr %10, align 4
  %144 = load ptr, ptr %7, align 8
  %145 = getelementptr inbounds nuw %"struct.OpenSubdiv::v3_6_0::Far::PatchTableBuilder::PatchInfo", ptr %144, i32 0, i32 4
  %146 = getelementptr inbounds [4 x %"struct.OpenSubdiv::v3_6_0::Vtr::internal::Level::VSpan"], ptr %145, i64 0, i64 0
  %147 = load i32, ptr %11, align 4
  call void @_ZNK10OpenSubdiv6v3_6_03Far12PatchBuilder28GetIrregularPatchCornerSpansEiiPNS0_3Vtr8internal5Level5VSpanEi(ptr noundef nonnull align 8 dereferenceable(56) %141, i32 noundef %142, i32 noundef %143, ptr noundef %146, i32 noundef %147)
  %148 = load i8, ptr %12, align 1
  %149 = trunc i8 %148 to i1
  br i1 %149, label %150, label %161

150:                                              ; preds = %139
  %151 = getelementptr inbounds nuw %"class.OpenSubdiv::v3_6_0::Far::PatchTableBuilder", ptr %15, i32 0, i32 5
  %152 = load ptr, ptr %151, align 8
  %153 = load i32, ptr %9, align 4
  %154 = load i32, ptr %10, align 4
  %155 = load ptr, ptr %7, align 8
  %156 = getelementptr inbounds nuw %"struct.OpenSubdiv::v3_6_0::Far::PatchTableBuilder::PatchInfo", ptr %155, i32 0, i32 4
  %157 = getelementptr inbounds [4 x %"struct.OpenSubdiv::v3_6_0::Vtr::internal::Level::VSpan"], ptr %156, i64 0, i64 0
  %158 = load ptr, ptr %7, align 8
  %159 = getelementptr inbounds nuw %"struct.OpenSubdiv::v3_6_0::Far::PatchTableBuilder::PatchInfo", ptr %158, i32 0, i32 7
  %160 = call noundef i32 @_ZNK10OpenSubdiv6v3_6_03Far12PatchBuilder33GetIrregularPatchConversionMatrixIdEEiiiPKNS0_3Vtr8internal5Level5VSpanERNS1_12SparseMatrixIT_EE(ptr noundef nonnull align 8 dereferenceable(56) %152, i32 noundef %153, i32 noundef %154, ptr noundef %157, ptr noundef nonnull align 8 dereferenceable(88) %159)
  br label %172

161:                                              ; preds = %139
  %162 = getelementptr inbounds nuw %"class.OpenSubdiv::v3_6_0::Far::PatchTableBuilder", ptr %15, i32 0, i32 5
  %163 = load ptr, ptr %162, align 8
  %164 = load i32, ptr %9, align 4
  %165 = load i32, ptr %10, align 4
  %166 = load ptr, ptr %7, align 8
  %167 = getelementptr inbounds nuw %"struct.OpenSubdiv::v3_6_0::Far::PatchTableBuilder::PatchInfo", ptr %166, i32 0, i32 4
  %168 = getelementptr inbounds [4 x %"struct.OpenSubdiv::v3_6_0::Vtr::internal::Level::VSpan"], ptr %167, i64 0, i64 0
  %169 = load ptr, ptr %7, align 8
  %170 = getelementptr inbounds nuw %"struct.OpenSubdiv::v3_6_0::Far::PatchTableBuilder::PatchInfo", ptr %169, i32 0, i32 6
  %171 = call noundef i32 @_ZNK10OpenSubdiv6v3_6_03Far12PatchBuilder33GetIrregularPatchConversionMatrixIfEEiiiPKNS0_3Vtr8internal5Level5VSpanERNS1_12SparseMatrixIT_EE(ptr noundef nonnull align 8 dereferenceable(56) %163, i32 noundef %164, i32 noundef %165, ptr noundef %168, ptr noundef nonnull align 8 dereferenceable(88) %170)
  br label %172

172:                                              ; preds = %161, %150
  %173 = load ptr, ptr %7, align 8
  %174 = getelementptr inbounds nuw %"struct.OpenSubdiv::v3_6_0::Far::PatchTableBuilder::PatchInfo", ptr %173, i32 0, i32 5
  store i32 0, ptr %174, align 4
  br label %175

175:                                              ; preds = %172, %132
  br label %176

176:                                              ; preds = %175, %131
  ret void
}