; Function Attrs: mustprogress uwtable
define void @_ZN10OpenSubdiv6v3_6_03Far17PatchTableBuilder21identifyPatchTopologyERKNS2_10PatchTupleERNS2_9PatchInfoEi(ptr noundef nonnull readonly align 8 captures(none) dereferenceable(208) %0, ptr noundef nonnull readonly align 4 captures(none) dereferenceable(8) %1, ptr noundef nonnull align 8 dereferenceable(224) initializes((0, 1)) %2, i32 noundef %3) local_unnamed_addr #3 align 2 {
  %5 = alloca %"struct.OpenSubdiv::v3_6_0::Far::PatchBuilder::SingleCreaseInfo", align 4
  %6 = getelementptr inbounds nuw i8, ptr %1, i64 4
  %7 = load i32, ptr %6, align 4
  %8 = load i32, ptr %1, align 4
  %9 = icmp sgt i32 %3, -1
  br i1 %9, label %10, label %_ZNK10OpenSubdiv6v3_6_03Far17PatchTableBuilder21getRefinerFVarChannelEi.exit

10:                                               ; preds = %4
  %11 = getelementptr inbounds nuw i8, ptr %0, i64 168
  %12 = zext nneg i32 %3 to i64
  %13 = load ptr, ptr %11, align 8
  %14 = getelementptr inbounds nuw i32, ptr %13, i64 %12
  %15 = load i32, ptr %14, align 4
  br label %_ZNK10OpenSubdiv6v3_6_03Far17PatchTableBuilder21getRefinerFVarChannelEi.exit

_ZNK10OpenSubdiv6v3_6_03Far17PatchTableBuilder21getRefinerFVarChannelEi.exit: ; preds = %4, %10
  %16 = phi i32 [ %15, %10 ], [ -1, %4 ]
  %17 = getelementptr inbounds nuw i8, ptr %0, i64 56
  %18 = load ptr, ptr %17, align 8
  %19 = tail call noundef zeroext i1 @_ZNK10OpenSubdiv6v3_6_03Far12PatchBuilder14IsPatchRegularEiii(ptr noundef nonnull align 8 dereferenceable(56) %18, i32 noundef %7, i32 noundef %8, i32 noundef %3)
  %20 = zext i1 %19 to i8
  store i8 %20, ptr %2, align 8
  %21 = icmp slt i32 %16, 0
  %22 = getelementptr inbounds nuw i8, ptr %0, i64 8
  %23 = load i32, ptr %22, align 8
  %24 = select i1 %21, i32 131072, i32 262144
  %25 = and i32 %23, %24
  %.not = icmp eq i32 %25, 0
  br i1 %19, label %26, label %56

26:                                               ; preds = %_ZNK10OpenSubdiv6v3_6_03Far17PatchTableBuilder21getRefinerFVarChannelEi.exit
  %27 = load ptr, ptr %17, align 8
  %28 = tail call noundef i32 @_ZNK10OpenSubdiv6v3_6_03Far12PatchBuilder27GetRegularPatchBoundaryMaskEiii(ptr noundef nonnull align 8 dereferenceable(56) %27, i32 noundef %7, i32 noundef %8, i32 noundef %16)
  %29 = getelementptr inbounds nuw i8, ptr %2, i64 4
  store i32 %28, ptr %29, align 4
  %30 = getelementptr inbounds nuw i8, ptr %2, i64 1
  store i8 0, ptr %30, align 1
  %31 = getelementptr inbounds nuw i8, ptr %2, i64 8
  store float 0.000000e+00, ptr %31, align 8
  %32 = getelementptr inbounds nuw i8, ptr %2, i64 44
  store i32 %28, ptr %32, align 4
  %33 = getelementptr inbounds nuw i8, ptr %0, i64 40
  %34 = load i8, ptr %33, align 8
  %35 = and i8 %34, 8
  %.not42 = icmp ne i8 %35, 0
  %36 = icmp eq i32 %28, 0
  %or.cond = and i1 %21, %36
  %or.cond43 = select i1 %.not42, i1 %or.cond, i1 false
  br i1 %or.cond43, label %37, label %72

37:                                               ; preds = %26
  %38 = load i32, ptr %22, align 8
  %39 = lshr i32 %38, 6
  %40 = and i32 %39, 15
  %41 = icmp slt i32 %7, %40
  br i1 %41, label %42, label %72

42:                                               ; preds = %37
  %43 = load ptr, ptr %17, align 8
  %44 = call noundef zeroext i1 @_ZNK10OpenSubdiv6v3_6_03Far12PatchBuilder26IsRegularSingleCreasePatchEiiRNS2_16SingleCreaseInfoE(ptr noundef nonnull align 8 dereferenceable(56) %43, i32 noundef %7, i32 noundef %8, ptr noundef nonnull align 4 dereferenceable(8) %5)
  br i1 %44, label %45, label %72

45:                                               ; preds = %42
  %46 = getelementptr inbounds nuw i8, ptr %5, i64 4
  %47 = load i32, ptr %22, align 8
  %48 = lshr i32 %47, 6
  %49 = and i32 %48, 15
  %50 = sub nsw i32 %49, %7
  %51 = sitofp i32 %50 to float
  %52 = load float, ptr %46, align 4
  %53 = fcmp ogt float %52, %51
  %.sroa.speculated = select i1 %53, float %51, float %52
  store i8 1, ptr %30, align 1
  store float %.sroa.speculated, ptr %31, align 8
  %54 = load i32, ptr %5, align 4
  %55 = shl nuw i32 1, %54
  store i32 %55, ptr %32, align 4
  br label %72

56:                                               ; preds = %_ZNK10OpenSubdiv6v3_6_03Far17PatchTableBuilder21getRefinerFVarChannelEi.exit
  %57 = getelementptr inbounds nuw i8, ptr %0, i64 40
  %58 = load i8, ptr %57, align 8
  %59 = and i8 %58, 4
  %.not41 = icmp eq i8 %59, 0
  br i1 %.not41, label %72, label %60

60:                                               ; preds = %56
  %61 = load ptr, ptr %17, align 8
  %62 = getelementptr inbounds nuw i8, ptr %2, i64 12
  tail call void @_ZNK10OpenSubdiv6v3_6_03Far12PatchBuilder28GetIrregularPatchCornerSpansEiiPNS0_3Vtr8internal5Level5VSpanEi(ptr noundef nonnull align 8 dereferenceable(56) %61, i32 noundef %7, i32 noundef %8, ptr noundef nonnull %62, i32 noundef %16)
  %63 = load ptr, ptr %17, align 8
  br i1 %.not, label %67, label %64

64:                                               ; preds = %60
  %65 = getelementptr inbounds nuw i8, ptr %2, i64 136
  %66 = tail call noundef i32 @_ZNK10OpenSubdiv6v3_6_03Far12PatchBuilder33GetIrregularPatchConversionMatrixIdEEiiiPKNS0_3Vtr8internal5Level5VSpanERNS1_12SparseMatrixIT_EE(ptr noundef nonnull align 8 dereferenceable(56) %63, i32 noundef %7, i32 noundef %8, ptr noundef nonnull %62, ptr noundef nonnull align 8 dereferenceable(88) %65)
  br label %70

67:                                               ; preds = %60
  %68 = getelementptr inbounds nuw i8, ptr %2, i64 48
  %69 = tail call noundef i32 @_ZNK10OpenSubdiv6v3_6_03Far12PatchBuilder33GetIrregularPatchConversionMatrixIfEEiiiPKNS0_3Vtr8internal5Level5VSpanERNS1_12SparseMatrixIT_EE(ptr noundef nonnull align 8 dereferenceable(56) %63, i32 noundef %7, i32 noundef %8, ptr noundef nonnull %62, ptr noundef nonnull align 8 dereferenceable(88) %68)
  br label %70

70:                                               ; preds = %67, %64
  %71 = getelementptr inbounds nuw i8, ptr %2, i64 44
  store i32 0, ptr %71, align 4
  br label %72

72:                                               ; preds = %56, %70, %26, %42, %45, %37
  ret void
}